target datalayout = "e-m:e-p270:32:32-p271:32:32-p272:64:64-i64:64-i128:128-f80:128-n8:16:32:64-S128"
target triple = "x86_64-pc-linux-gnu"

%"class.pxrInternal_v0_24__pxrReserved__::UsdObject" = type { i32, %"class.pxrInternal_v0_24__pxrReserved__::Usd_PrimDataHandle", %"class.pxrInternal_v0_24__pxrReserved__::SdfPath", %"class.pxrInternal_v0_24__pxrReserved__::TfToken" }
%"class.pxrInternal_v0_24__pxrReserved__::Usd_PrimDataHandle" = type { %"class.pxrInternal_v0_24__pxrReserved__::TfDelegatedCountPtr" }
%"class.pxrInternal_v0_24__pxrReserved__::TfDelegatedCountPtr" = type { ptr }
%"class.pxrInternal_v0_24__pxrReserved__::SdfPath" = type { %"struct.pxrInternal_v0_24__pxrReserved__::Sdf_PathNodeHandleImpl", %"struct.pxrInternal_v0_24__pxrReserved__::Sdf_PathNodeHandleImpl.0" }
%"struct.pxrInternal_v0_24__pxrReserved__::Sdf_PathNodeHandleImpl" = type { %"struct.pxrInternal_v0_24__pxrReserved__::Sdf_Pool<pxrInternal_v0_24__pxrReserved__::Sdf_PathPrimTag, 24, 8>::Handle" }
%"struct.pxrInternal_v0_24__pxrReserved__::Sdf_Pool<pxrInternal_v0_24__pxrReserved__::Sdf_PathPrimTag, 24, 8>::Handle" = type { i32 }
%"struct.pxrInternal_v0_24__pxrReserved__::Sdf_PathNodeHandleImpl.0" = type { %"struct.pxrInternal_v0_24__pxrReserved__::Sdf_Pool<pxrInternal_v0_24__pxrReserved__::Sdf_PathPropTag, 24, 8>::Handle" }
%"struct.pxrInternal_v0_24__pxrReserved__::Sdf_Pool<pxrInternal_v0_24__pxrReserved__::Sdf_PathPropTag, 24, 8>::Handle" = type { i32 }
%"class.pxrInternal_v0_24__pxrReserved__::TfToken" = type { %"class.pxrInternal_v0_24__pxrReserved__::TfPointerAndBits" }
%"class.pxrInternal_v0_24__pxrReserved__::TfPointerAndBits" = type { ptr }
%"class.pxrInternal_v0_24__pxrReserved__::UsdPrim" = type { %"class.pxrInternal_v0_24__pxrReserved__::UsdObject" }
%"class.std::vector.6" = type { %"struct.std::_Vector_base.7" }
%"struct.std::_Vector_base.7" = type { %"struct.std::_Vector_base<pxrInternal_v0_24__pxrReserved__::UsdSkelInbetweenShape, std::allocator<pxrInternal_v0_24__pxrReserved__::UsdSkelInbetweenShape>>::_Vector_impl" }
%"struct.std::_Vector_base<pxrInternal_v0_24__pxrReserved__::UsdSkelInbetweenShape, std::allocator<pxrInternal_v0_24__pxrReserved__::UsdSkelInbetweenShape>>::_Vector_impl" = type { %"struct.std::_Vector_base<pxrInternal_v0_24__pxrReserved__::UsdSkelInbetweenShape, std::allocator<pxrInternal_v0_24__pxrReserved__::UsdSkelInbetweenShape>>::_Vector_impl_data" }
%"struct.std::_Vector_base<pxrInternal_v0_24__pxrReserved__::UsdSkelInbetweenShape, std::allocator<pxrInternal_v0_24__pxrReserved__::UsdSkelInbetweenShape>>::_Vector_impl_data" = type { ptr, ptr, ptr }
%"class.pxrInternal_v0_24__pxrReserved__::UsdSkelBlendShapeQuery" = type { %"class.pxrInternal_v0_24__pxrReserved__::UsdPrim", %"class.std::vector", %"class.std::vector.1", %"class.std::vector.6" }
%"class.std::vector" = type { %"struct.std::_Vector_base" }
%"struct.std::_Vector_base" = type { %"struct.std::_Vector_base<pxrInternal_v0_24__pxrReserved__::UsdSkelBlendShapeQuery::_SubShape, std::allocator<pxrInternal_v0_24__pxrReserved__::UsdSkelBlendShapeQuery::_SubShape>>::_Vector_impl" }
%"struct.std::_Vector_base<pxrInternal_v0_24__pxrReserved__::UsdSkelBlendShapeQuery::_SubShape, std::allocator<pxrInternal_v0_24__pxrReserved__::UsdSkelBlendShapeQuery::_SubShape>>::_Vector_impl" = type { %"struct.std::_Vector_base<pxrInternal_v0_24__pxrReserved__::UsdSkelBlendShapeQuery::_SubShape, std::allocator<pxrInternal_v0_24__pxrReserved__::UsdSkelBlendShapeQuery::_SubShape>>::_Vector_impl_data" }
%"struct.std::_Vector_base<pxrInternal_v0_24__pxrReserved__::UsdSkelBlendShapeQuery::_SubShape, std::allocator<pxrInternal_v0_24__pxrReserved__::UsdSkelBlendShapeQuery::_SubShape>>::_Vector_impl_data" = type { ptr, ptr, ptr }
%"class.std::vector.1" = type { %"struct.std::_Vector_base.2" }
%"struct.std::_Vector_base.2" = type { %"struct.std::_Vector_base<pxrInternal_v0_24__pxrReserved__::UsdSkelBlendShapeQuery::_BlendShape, std::allocator<pxrInternal_v0_24__pxrReserved__::UsdSkelBlendShapeQuery::_BlendShape>>::_Vector_impl" }
%"struct.std::_Vector_base<pxrInternal_v0_24__pxrReserved__::UsdSkelBlendShapeQuery::_BlendShape, std::allocator<pxrInternal_v0_24__pxrReserved__::UsdSkelBlendShapeQuery::_BlendShape>>::_Vector_impl" = type { %"struct.std::_Vector_base<pxrInternal_v0_24__pxrReserved__::UsdSkelBlendShapeQuery::_BlendShape, std::allocator<pxrInternal_v0_24__pxrReserved__::UsdSkelBlendShapeQuery::_BlendShape>>::_Vector_impl_data" }
%"struct.std::_Vector_base<pxrInternal_v0_24__pxrReserved__::UsdSkelBlendShapeQuery::_BlendShape, std::allocator<pxrInternal_v0_24__pxrReserved__::UsdSkelBlendShapeQuery::_BlendShape>>::_Vector_impl_data" = type { ptr, ptr, ptr }
%"struct.pxrInternal_v0_24__pxrReserved__::UsdSkelBlendShapeQuery::_SubShape" = type { i32, i32, float }

; Function Attrs: mustprogress nounwind uwtable
define linkonce_odr noundef i32 @_ZNK32pxrInternal_v0_24__pxrReserved__22UsdSkelBlendShapeQuery9_SubShape18GetBlendShapeIndexEv(ptr noundef nonnull align 4 dereferenceable(12) %0) #1 comdat align 2 {
  %2 = alloca ptr, align 8
  store ptr %0, ptr %2, align 8
  %3 = load ptr, ptr %2, align 8
  %4 = getelementptr inbounds nuw %"struct.pxrInternal_v0_24__pxrReserved__::UsdSkelBlendShapeQuery::_SubShape", ptr %3, i32 0, i32 0
  %5 = load i32, ptr %4, align 4
  ret i32 %5
}

; Function Attrs: mustprogress nounwind uwtable
define linkonce_odr noundef nonnull align 4 dereferenceable(12) ptr @_ZNKSt6vectorIN32pxrInternal_v0_24__pxrReserved__22UsdSkelBlendShapeQuery9_SubShapeESaIS2_EEixEm(ptr noundef nonnull align 8 dereferenceable(24) %0, i64 noundef %1) #1 comdat align 2 {
  %3 = alloca ptr, align 8
  %4 = alloca i64, align 8
  store ptr %0, ptr %3, align 8
  store i64 %1, ptr %4, align 8
  %5 = load ptr, ptr %3, align 8
  %6 = getelementptr inbounds nuw %"struct.std::_Vector_base", ptr %5, i32 0, i32 0
  %7 = getelementptr inbounds nuw %"struct.std::_Vector_base<pxrInternal_v0_24__pxrReserved__::UsdSkelBlendShapeQuery::_SubShape, std::allocator<pxrInternal_v0_24__pxrReserved__::UsdSkelBlendShapeQuery::_SubShape>>::_Vector_impl_data", ptr %6, i32 0, i32 0
  %8 = load ptr, ptr %7, align 8
  %9 = load i64, ptr %4, align 8
  %10 = getelementptr inbounds %"struct.pxrInternal_v0_24__pxrReserved__::UsdSkelBlendShapeQuery::_SubShape", ptr %8, i64 %9
  ret ptr %10
}

; Function Attrs: mustprogress nounwind uwtable
define linkonce_odr noundef i64 @_ZNKSt6vectorIN32pxrInternal_v0_24__pxrReserved__22UsdSkelBlendShapeQuery9_SubShapeESaIS2_EE4sizeEv(ptr noundef nonnull align 8 dereferenceable(24) %0) #1 comdat align 2 {
  %2 = alloca ptr, align 8
  store ptr %0, ptr %2, align 8
  %3 = load ptr, ptr %2, align 8
  %4 = getelementptr inbounds nuw %"struct.std::_Vector_base", ptr %3, i32 0, i32 0
  %5 = getelementptr inbounds nuw %"struct.std::_Vector_base<pxrInternal_v0_24__pxrReserved__::UsdSkelBlendShapeQuery::_SubShape, std::allocator<pxrInternal_v0_24__pxrReserved__::UsdSkelBlendShapeQuery::_SubShape>>::_Vector_impl_data", ptr %4, i32 0, i32 1
  %6 = load ptr, ptr %5, align 8
  %7 = getelementptr inbounds nuw %"struct.std::_Vector_base", ptr %3, i32 0, i32 0
  %8 = getelementptr inbounds nuw %"struct.std::_Vector_base<pxrInternal_v0_24__pxrReserved__::UsdSkelBlendShapeQuery::_SubShape, std::allocator<pxrInternal_v0_24__pxrReserved__::UsdSkelBlendShapeQuery::_SubShape>>::_Vector_impl_data", ptr %7, i32 0, i32 0
  %9 = load ptr, ptr %8, align 8
  %10 = ptrtoint ptr %6 to i64
  %11 = ptrtoint ptr %9 to i64
  %12 = sub i64 %10, %11
  %13 = sdiv exact i64 %12, 12
  ret i64 %13
}

; Function Attrs: mustprogress uwtable
define noundef i64 @_ZNK32pxrInternal_v0_24__pxrReserved__22UsdSkelBlendShapeQuery18GetBlendShapeIndexEm(ptr noundef nonnull align 8 dereferenceable(104) %0, i64 noundef %1) #0 align 2 {
  %3 = alloca i64, align 8
  %4 = alloca ptr, align 8
  %5 = alloca i64, align 8
  store ptr %0, ptr %4, align 8
  store i64 %1, ptr %5, align 8
  %6 = load ptr, ptr %4, align 8
  %7 = load i64, ptr %5, align 8
  %8 = getelementptr inbounds nuw %"class.pxrInternal_v0_24__pxrReserved__::UsdSkelBlendShapeQuery", ptr %6, i32 0, i32 1
  %9 = call noundef i64 @_ZNKSt6vectorIN32pxrInternal_v0_24__pxrReserved__22UsdSkelBlendShapeQuery9_SubShapeESaIS2_EE4sizeEv(ptr noundef nonnull align 8 dereferenceable(24) %8) #13
  %10 = icmp ult i64 %7, %9
  br i1 %10, label %11, label %17

11:                                               ; preds = %2
  %12 = getelementptr inbounds nuw %"class.pxrInternal_v0_24__pxrReserved__::UsdSkelBlendShapeQuery", ptr %6, i32 0, i32 1
  %13 = load i64, ptr %5, align 8
  %14 = call noundef nonnull align 4 dereferenceable(12) ptr @_ZNKSt6vectorIN32pxrInternal_v0_24__pxrReserved__22UsdSkelBlendShapeQuery9_SubShapeESaIS2_EEixEm(ptr noundef nonnull align 8 dereferenceable(24) %12, i64 noundef %13) #13
  %15 = call noundef i32 @_ZNK32pxrInternal_v0_24__pxrReserved__22UsdSkelBlendShapeQuery9_SubShape18GetBlendShapeIndexEv(ptr noundef nonnull align 4 dereferenceable(12) %14)
  %16 = zext i32 %15 to i64
  store i64 %16, ptr %3, align 8
  br label %18

17:                                               ; preds = %2
  store i64 0, ptr %3, align 8
  br label %18

18:                                               ; preds = %17, %11
  %19 = load i64, ptr %3, align 8
  ret i64 %19
}