; Function Attrs: mustprogress nofree norecurse nosync nounwind willreturn memory(read, inaccessiblemem: none) uwtable
define noundef range(i64 0, 4294967296) i64 @_ZNK32pxrInternal_v0_24__pxrReserved__22UsdSkelBlendShapeQuery18GetBlendShapeIndexEm(ptr nocapture noundef nonnull readonly align 8 dereferenceable(104) %0, i64 noundef %1) local_unnamed_addr #4 align 2 {
  %3 = getelementptr inbounds nuw i8, ptr %0, i64 32
  %4 = getelementptr inbounds i8, ptr %0, i64 40
  %5 = load ptr, ptr %4, align 8
  %6 = load ptr, ptr %3, align 8
  %7 = ptrtoint ptr %5 to i64
  %8 = ptrtoint ptr %6 to i64
  %9 = sub i64 %7, %8
  %10 = sdiv exact i64 %9, 12
  %11 = icmp ult i64 %1, %10
  br i1 %11, label %12, label %16

12:                                               ; preds = %2
  %13 = getelementptr inbounds %"struct.pxrInternal_v0_24__pxrReserved__::UsdSkelBlendShapeQuery::_SubShape", ptr %6, i64 %1
  %14 = load i32, ptr %13, align 4
  %15 = zext i32 %14 to i64
  br label %16

16:                                               ; preds = %2, %12
  %.0 = phi i64 [ %15, %12 ], [ 0, %2 ]
  ret i64 %.0
}